target datalayout = "e-m:e-p270:32:32-p271:32:32-p272:64:64-i64:64-i128:128-f80:128-n8:16:32:64-S128"
target triple = "x86_64-pc-linux-gnu"

%struct.SDL_AtomicInt = type { i32 }
%struct.SDL_error = type { i32, ptr, i64, ptr, ptr }
%struct.SDL_Thread = type { i64, i64, i32, %struct.SDL_AtomicInt, %struct.SDL_error, ptr, i64, ptr, ptr, ptr, ptr }

; Function Attrs: nounwind uwtable
define internal zeroext i1 @ThreadValid(ptr noundef %0) #0 {
  %2 = alloca ptr, align 8
  store ptr %0, ptr %2, align 8
  %3 = load ptr, ptr %2, align 8
  %4 = call zeroext i1 @SDL_ObjectValid(ptr noundef %3, i32 noundef 10)
  ret i1 %4
}

; Function Attrs: nounwind uwtable
define hidden void @SDL_WaitThread_REAL(ptr noundef %0, ptr noundef %1) #0 {
  %3 = alloca ptr, align 8
  %4 = alloca ptr, align 8
  store ptr %0, ptr %3, align 8
  store ptr %1, ptr %4, align 8
  %5 = load ptr, ptr %3, align 8
  %6 = call zeroext i1 @ThreadValid(ptr noundef %5)
  br i1 %6, label %13, label %7

7:                                                ; preds = %2
  %8 = load ptr, ptr %4, align 8
  %9 = icmp ne ptr %8, null
  br i1 %9, label %10, label %12

10:                                               ; preds = %7
  %11 = load ptr, ptr %4, align 8
  store i32 -1, ptr %11, align 4
  br label %12

12:                                               ; preds = %10, %7
  br label %28

13:                                               ; preds = %2
  %14 = load ptr, ptr %3, align 8
  call void @SDL_SYS_WaitThread(ptr noundef %14)
  %15 = load ptr, ptr %4, align 8
  %16 = icmp ne ptr %15, null
  br i1 %16, label %17, label %22

17:                                               ; preds = %13
  %18 = load ptr, ptr %3, align 8
  %19 = getelementptr inbounds nuw %struct.SDL_Thread, ptr %18, i32 0, i32 2
  %20 = load i32, ptr %19, align 8
  %21 = load ptr, ptr %4, align 8
  store i32 %20, ptr %21, align 4
  br label %22

22:                                               ; preds = %17, %13
  %23 = load ptr, ptr %3, align 8
  call void @SDL_SetObjectValid(ptr noundef %23, i32 noundef 10, i1 noundef zeroext false)
  %24 = load ptr, ptr %3, align 8
  %25 = getelementptr inbounds nuw %struct.SDL_Thread, ptr %24, i32 0, i32 5
  %26 = load ptr, ptr %25, align 8
  call void @SDL_free_REAL(ptr noundef %26)
  %27 = load ptr, ptr %3, align 8
  call void @SDL_free_REAL(ptr noundef %27)
  br label %28

28:                                               ; preds = %22, %12
  ret void
}