; Function Attrs: nounwind uwtable
define hidden void @SDL_WaitThread_REAL(ptr noundef %0, ptr noundef writeonly captures(address_is_null) %1) local_unnamed_addr #0 {
  %3 = tail call zeroext i1 @SDL_ObjectValid(ptr noundef %0, i32 noundef 10) #6
  br i1 %3, label %6, label %4

4:                                                ; preds = %2
  %.not = icmp eq ptr %1, null
  br i1 %.not, label %13, label %5

5:                                                ; preds = %4
  store i32 -1, ptr %1, align 4
  br label %13

6:                                                ; preds = %2
  tail call void @SDL_SYS_WaitThread(ptr noundef %0) #6
  %.not10 = icmp eq ptr %1, null
  br i1 %.not10, label %10, label %7

7:                                                ; preds = %6
  %8 = getelementptr inbounds nuw i8, ptr %0, i64 16
  %9 = load i32, ptr %8, align 8
  store i32 %9, ptr %1, align 4
  br label %10

10:                                               ; preds = %7, %6
  tail call void @SDL_SetObjectValid(ptr noundef %0, i32 noundef 10, i1 noundef zeroext false) #6
  %11 = getelementptr inbounds nuw i8, ptr %0, i64 64
  %12 = load ptr, ptr %11, align 8
  tail call void @SDL_free_REAL(ptr noundef %12) #6
  tail call void @SDL_free_REAL(ptr noundef %0) #6
  br label %13

13:                                               ; preds = %4, %5, %10
  ret void
}